; Function Attrs: mustprogress uwtable
define noundef nonnull ptr @_ZN7rocksdb19WriteBatchWithIndex11NewIteratorEPNS_18ColumnFamilyHandleE(ptr noundef nonnull readonly align 8 captures(none) dereferenceable(16) %0, ptr noundef %1) local_unnamed_addr #4 align 2 personality ptr @__gxx_personality_v0 {
  %3 = tail call noalias noundef nonnull dereferenceable(72) ptr @_Znwm(i64 noundef 72) #27
  %4 = invoke noundef i32 @_ZN7rocksdb17GetColumnFamilyIDEPNS_18ColumnFamilyHandleE(ptr noundef %1)
          to label %5 unwind label %16

5:                                                ; preds = %2
  %6 = getelementptr inbounds nuw i8, ptr %0, i64 8
  %7 = load ptr, ptr %6, align 8, !tbaa !202
  %8 = getelementptr inbounds nuw i8, ptr %7, i64 2496
  %9 = getelementptr inbounds nuw i8, ptr %7, i64 160
  store ptr getelementptr inbounds nuw inrange(-16, 104) (i8, ptr @_ZTVN7rocksdb16WBWIIteratorImplE, i64 16), ptr %3, align 8, !tbaa !88
  %10 = getelementptr inbounds nuw i8, ptr %3, i64 8
  store i32 %4, ptr %10, align 8, !tbaa !90
  %11 = getelementptr inbounds nuw i8, ptr %3, i64 16
  store ptr %8, ptr %11, align 8, !tbaa !95
  %12 = getelementptr inbounds nuw i8, ptr %3, i64 24
  store ptr null, ptr %12, align 8, !tbaa !96
  %13 = getelementptr inbounds nuw i8, ptr %3, i64 32
  store ptr %7, ptr %13, align 8, !tbaa !97
  %14 = getelementptr inbounds nuw i8, ptr %3, i64 40
  store ptr %9, ptr %14, align 8, !tbaa !98
  %15 = getelementptr inbounds nuw i8, ptr %3, i64 48
  tail call void @llvm.memset.p0.i64(ptr noundef nonnull align 8 dereferenceable(17) %15, i8 0, i64 17, i1 false)
  ret ptr %3

16:                                               ; preds = %2
  %17 = landingpad { ptr, i32 }
          cleanup
  tail call void @_ZdlPvm(ptr noundef nonnull %3, i64 noundef 72) #25
  resume { ptr, i32 } %17
}